; Function Attrs: nofree nosync nounwind memory(readwrite, inaccessiblemem: none) uwtable
define i32 @Llb_ManCutVolume_rec(ptr noundef readonly captures(none) %0, ptr noundef captures(none) %1) local_unnamed_addr #6 {
  %3 = getelementptr i8, ptr %0, i64 312
  %.val813 = load i32, ptr %3, align 8, !tbaa !14
  %4 = getelementptr i8, ptr %1, i64 32
  %.val914 = load i32, ptr %4, align 8, !tbaa !28
  %.not15 = icmp eq i32 %.val914, %.val813
  br i1 %.not15, label %tailrecurse._crit_edge, label %tailrecurse

tailrecurse:                                      ; preds = %2, %tailrecurse
  %5 = phi ptr [ %17, %tailrecurse ], [ %4, %2 ]
  %.val818 = phi i32 [ %.val8, %tailrecurse ], [ %.val813, %2 ]
  %.tr1217 = phi ptr [ %14, %tailrecurse ], [ %1, %2 ]
  %accumulator.tr16 = phi i32 [ %16, %tailrecurse ], [ 0, %2 ]
  store i32 %.val818, ptr %5, align 8, !tbaa !28
  %6 = getelementptr i8, ptr %.tr1217, i64 8
  %.val10 = load ptr, ptr %6, align 8, !tbaa !31
  %7 = ptrtoint ptr %.val10 to i64
  %8 = and i64 %7, -2
  %9 = inttoptr i64 %8 to ptr
  %10 = tail call i32 @Llb_ManCutVolume_rec(ptr noundef nonnull %0, ptr noundef %9)
  %11 = getelementptr i8, ptr %.tr1217, i64 16
  %.val11 = load ptr, ptr %11, align 8, !tbaa !32
  %12 = ptrtoint ptr %.val11 to i64
  %13 = and i64 %12, -2
  %14 = inttoptr i64 %13 to ptr
  %15 = add i32 %accumulator.tr16, 1
  %16 = add i32 %15, %10
  %.val8 = load i32, ptr %3, align 8, !tbaa !14
  %17 = getelementptr i8, ptr %14, i64 32
  %.val9 = load i32, ptr %17, align 8, !tbaa !28
  %.not = icmp eq i32 %.val9, %.val8
  br i1 %.not, label %tailrecurse._crit_edge, label %tailrecurse

tailrecurse._crit_edge:                           ; preds = %tailrecurse, %2
  %accumulator.tr.lcssa = phi i32 [ 0, %2 ], [ %16, %tailrecurse ]
  ret i32 %accumulator.tr.lcssa
}